target datalayout = "e-m:e-p270:32:32-p271:32:32-p272:64:64-i64:64-i128:128-f80:128-n8:16:32:64-S128"
target triple = "x86_64-pc-linux-gnu"

%"class.icu_77::MaybeStackArray" = type <{ ptr, i32, i8, [40 x i8], [3 x i8] }>
%"class.icu_77::UObject" = type { ptr }
%"class.icu_77::UnicodeString" = type { %"class.icu_77::Replaceable", %"union.icu_77::UnicodeString::StackBufferOrFields" }
%"class.icu_77::Replaceable" = type { %"class.icu_77::UObject" }
%"union.icu_77::UnicodeString::StackBufferOrFields" = type { %struct.anon.2, [32 x i8] }
%struct.anon.2 = type { i16, i32, i32, ptr }
%"class.icu_77::numparse::impl::IgnorablesMatcher" = type { %"class.icu_77::numparse::impl::SymbolMatcher" }
%"class.icu_77::numparse::impl::SymbolMatcher" = type { %"class.icu_77::numparse::impl::NumberParseMatcher", %"class.icu_77::UnicodeString", ptr }
%"class.icu_77::numparse::impl::NumberParseMatcher" = type { ptr }
%"class.icu_77::CharString" = type { %"class.icu_77::MaybeStackArray", i32, [4 x i8] }
%"class.icu_77::numparse::impl::AffixTokenMatcherWarehouse" = type { ptr, %"class.icu_77::numparse::impl::MinusSignMatcher", %"class.icu_77::numparse::impl::PlusSignMatcher", %"class.icu_77::numparse::impl::PercentMatcher", %"class.icu_77::numparse::impl::PermilleMatcher", %"class.icu_77::numparse::impl::CombinedCurrencyMatcher", %"class.icu_77::MemoryPool" }
%"class.icu_77::numparse::impl::MinusSignMatcher" = type <{ %"class.icu_77::numparse::impl::SymbolMatcher", i8, [7 x i8] }>
%"class.icu_77::numparse::impl::PlusSignMatcher" = type <{ %"class.icu_77::numparse::impl::SymbolMatcher", i8, [7 x i8] }>
%"class.icu_77::numparse::impl::PercentMatcher" = type { %"class.icu_77::numparse::impl::SymbolMatcher" }
%"class.icu_77::numparse::impl::PermilleMatcher" = type { %"class.icu_77::numparse::impl::SymbolMatcher" }
%"class.icu_77::numparse::impl::CombinedCurrencyMatcher" = type { %"class.icu_77::numparse::impl::NumberParseMatcher", [4 x i16], %"class.icu_77::UnicodeString", %"class.icu_77::UnicodeString", i8, [8 x %"class.icu_77::UnicodeString"], %"class.icu_77::UnicodeString", %"class.icu_77::UnicodeString", %"class.icu_77::CharString" }
%"class.icu_77::MemoryPool" = type { i32, %"class.icu_77::MaybeStackArray.9" }
%"class.icu_77::MaybeStackArray.9" = type { ptr, i32, i8, [8 x ptr] }
%"class.icu_77::numparse::impl::AffixMatcherWarehouse" = type { [18 x %"class.icu_77::numparse::impl::AffixMatcher"], [12 x %"class.icu_77::numparse::impl::AffixPatternMatcher"], ptr }
%"class.icu_77::numparse::impl::AffixMatcher" = type <{ %"class.icu_77::numparse::impl::NumberParseMatcher", ptr, ptr, i32, [4 x i8] }>
%"class.icu_77::numparse::impl::AffixPatternMatcher" = type { %"class.icu_77::numparse::impl::ArraySeriesMatcher.base", [4 x i8], %"class.icu_77::numparse::impl::CompactUnicodeString" }
%"class.icu_77::numparse::impl::ArraySeriesMatcher.base" = type <{ %"class.icu_77::numparse::impl::SeriesMatcher", %"class.icu_77::MaybeStackArray.6", i32 }>
%"class.icu_77::numparse::impl::SeriesMatcher" = type { %"class.icu_77::numparse::impl::CompositionMatcher" }
%"class.icu_77::numparse::impl::CompositionMatcher" = type { %"class.icu_77::numparse::impl::NumberParseMatcher" }
%"class.icu_77::MaybeStackArray.6" = type { ptr, i32, i8, [3 x ptr] }
%"class.icu_77::numparse::impl::CompactUnicodeString" = type { %"class.icu_77::MaybeStackArray.7" }
%"class.icu_77::MaybeStackArray.7" = type <{ ptr, i32, i8, i8, [4 x i16], [2 x i8] }>
%"class.icu_77::numparse::impl::DecimalMatcher" = type { %"class.icu_77::numparse::impl::NumberParseMatcher", i8, i8, i8, i16, i16, %"class.icu_77::UnicodeString", %"class.icu_77::UnicodeString", ptr, ptr, ptr, ptr, %"class.icu_77::LocalPointer.3", %"class.icu_77::LocalPointer.3", %"class.icu_77::LocalArray" }
%"class.icu_77::LocalPointer.3" = type { %"class.icu_77::LocalPointerBase.4" }
%"class.icu_77::LocalPointerBase.4" = type { ptr }
%"class.icu_77::LocalArray" = type { %"class.icu_77::LocalPointerBase.5" }
%"class.icu_77::LocalPointerBase.5" = type { ptr }
%"class.icu_77::numparse::impl::NanMatcher" = type { %"class.icu_77::numparse::impl::SymbolMatcher" }
%"class.icu_77::numparse::impl::InfinityMatcher" = type { %"class.icu_77::numparse::impl::SymbolMatcher" }
%"class.icu_77::numparse::impl::PaddingMatcher" = type { %"class.icu_77::numparse::impl::SymbolMatcher" }
%"class.icu_77::numparse::impl::ScientificMatcher" = type { %"class.icu_77::numparse::impl::NumberParseMatcher", %"class.icu_77::UnicodeString", %"class.icu_77::numparse::impl::DecimalMatcher", %"class.icu_77::numparse::impl::IgnorablesMatcher", %"class.icu_77::UnicodeString", %"class.icu_77::UnicodeString" }
%"class.icu_77::numparse::impl::RequireNumberValidator" = type { %"class.icu_77::numparse::impl::ValidationMatcher" }
%"class.icu_77::numparse::impl::ValidationMatcher" = type { %"class.icu_77::numparse::impl::NumberParseMatcher" }
%"class.icu_77::numparse::impl::NumberParserImpl" = type { %"class.icu_77::numparse::impl::MutableMatcherCollection", i32, i32, %"class.icu_77::MaybeStackArray.0", i8, %struct.anon, %struct.anon.10 }
%"class.icu_77::numparse::impl::MutableMatcherCollection" = type { ptr }
%"class.icu_77::MaybeStackArray.0" = type { ptr, i32, i8, [10 x ptr] }
%struct.anon = type { %"class.icu_77::numparse::impl::IgnorablesMatcher", %"class.icu_77::numparse::impl::InfinityMatcher", %"class.icu_77::numparse::impl::MinusSignMatcher", %"class.icu_77::numparse::impl::NanMatcher", %"class.icu_77::numparse::impl::PaddingMatcher", %"class.icu_77::numparse::impl::PercentMatcher", %"class.icu_77::numparse::impl::PermilleMatcher", %"class.icu_77::numparse::impl::PlusSignMatcher", %"class.icu_77::numparse::impl::DecimalMatcher", %"class.icu_77::numparse::impl::ScientificMatcher", %"class.icu_77::numparse::impl::CombinedCurrencyMatcher", %"class.icu_77::numparse::impl::AffixMatcherWarehouse", %"class.icu_77::numparse::impl::AffixTokenMatcherWarehouse" }
%struct.anon.10 = type { %"class.icu_77::numparse::impl::RequireAffixValidator", %"class.icu_77::numparse::impl::RequireCurrencyValidator", %"class.icu_77::numparse::impl::RequireDecimalSeparatorValidator", %"class.icu_77::numparse::impl::RequireNumberValidator", %"class.icu_77::numparse::impl::MultiplierParseHandler" }
%"class.icu_77::numparse::impl::RequireAffixValidator" = type { %"class.icu_77::numparse::impl::ValidationMatcher" }
%"class.icu_77::numparse::impl::RequireCurrencyValidator" = type { %"class.icu_77::numparse::impl::ValidationMatcher" }
%"class.icu_77::numparse::impl::RequireDecimalSeparatorValidator" = type <{ %"class.icu_77::numparse::impl::ValidationMatcher", i8, [7 x i8] }>
%"class.icu_77::numparse::impl::MultiplierParseHandler" = type { %"class.icu_77::numparse::impl::ValidationMatcher", %"class.icu_77::number::Scale" }
%"class.icu_77::number::Scale" = type <{ i32, [4 x i8], ptr, i32, [4 x i8] }>

; Function Attrs: inlinehint mustprogress nounwind uwtable
define internal noundef signext i8 @_ZL9U_FAILURE10UErrorCode(i32 noundef %0) #2 {
  %2 = alloca i32, align 4
  store i32 %0, ptr %2, align 4, !tbaa !15
  %3 = load i32, ptr %2, align 4, !tbaa !15
  %4 = icmp sgt i32 %3, 0
  %5 = zext i1 %4 to i8
  ret i8 %5
}

; Function Attrs: mustprogress nounwind uwtable
define linkonce_odr noundef nonnull align 8 dereferenceable(8) ptr @_ZNK6icu_7715MaybeStackArrayIPKNS_8numparse4impl18NumberParseMatcherELi10EEixEl(ptr noundef nonnull align 8 dereferenceable(96) %0, i64 noundef %1) #0 comdat align 2 {
  %3 = alloca ptr, align 8
  %4 = alloca i64, align 8
  store ptr %0, ptr %3, align 8, !tbaa !220
  store i64 %1, ptr %4, align 8, !tbaa !18
  %5 = load ptr, ptr %3, align 8
  %6 = getelementptr inbounds nuw %"class.icu_77::MaybeStackArray.0", ptr %5, i32 0, i32 0
  %7 = load ptr, ptr %6, align 8, !tbaa !222
  %8 = load i64, ptr %4, align 8, !tbaa !18
  %9 = getelementptr inbounds ptr, ptr %7, i64 %8
  ret ptr %9
}

; Function Attrs: mustprogress uwtable
define void @_ZNK6icu_778numparse4impl16NumberParserImpl11parseGreedyERNS_13StringSegmentERNS1_12ParsedNumberER10UErrorCode(ptr noundef nonnull align 8 dereferenceable(5216) %0, ptr noundef nonnull align 8 dereferenceable(17) %1, ptr noundef nonnull align 8 dereferenceable(216) %2, ptr noundef nonnull align 4 dereferenceable(4) %3) #1 align 2 {
  %5 = alloca ptr, align 8
  %6 = alloca ptr, align 8
  %7 = alloca ptr, align 8
  %8 = alloca ptr, align 8
  %9 = alloca i32, align 4
  %10 = alloca i32, align 4
  %11 = alloca ptr, align 8
  %12 = alloca i32, align 4
  store ptr %0, ptr %5, align 8, !tbaa !41
  store ptr %1, ptr %6, align 8, !tbaa !229
  store ptr %2, ptr %7, align 8, !tbaa !226
  store ptr %3, ptr %8, align 8, !tbaa !22
  %13 = load ptr, ptr %5, align 8
  call void @llvm.lifetime.start.p0(i64 4, ptr %9) #13
  store i32 0, ptr %9, align 4, !tbaa !14
  br label %14

14:                                               ; preds = %66, %4
  %15 = load i32, ptr %9, align 4, !tbaa !14
  %16 = getelementptr inbounds nuw %"class.icu_77::numparse::impl::NumberParserImpl", ptr %13, i32 0, i32 2
  %17 = load i32, ptr %16, align 4, !tbaa !217
  %18 = icmp slt i32 %15, %17
  br i1 %18, label %20, label %19

19:                                               ; preds = %14
  store i32 2, ptr %10, align 4
  br label %68

20:                                               ; preds = %14
  %21 = load ptr, ptr %6, align 8, !tbaa !229
  %22 = call noundef i32 @_ZNK6icu_7713StringSegment6lengthEv(ptr noundef nonnull align 8 dereferenceable(17) %21)
  %23 = icmp eq i32 %22, 0
  br i1 %23, label %24, label %25

24:                                               ; preds = %20
  store i32 1, ptr %10, align 4
  br label %68

25:                                               ; preds = %20
  call void @llvm.lifetime.start.p0(i64 8, ptr %11) #13
  %26 = getelementptr inbounds nuw %"class.icu_77::numparse::impl::NumberParserImpl", ptr %13, i32 0, i32 3
  %27 = load i32, ptr %9, align 4, !tbaa !14
  %28 = sext i32 %27 to i64
  %29 = call noundef nonnull align 8 dereferenceable(8) ptr @_ZNK6icu_7715MaybeStackArrayIPKNS_8numparse4impl18NumberParseMatcherELi10EEixEl(ptr noundef nonnull align 8 dereferenceable(96) %26, i64 noundef %28)
  %30 = load ptr, ptr %29, align 8, !tbaa !23
  store ptr %30, ptr %11, align 8, !tbaa !23
  %31 = load ptr, ptr %11, align 8, !tbaa !23
  %32 = load ptr, ptr %6, align 8, !tbaa !229
  %33 = load ptr, ptr %31, align 8, !tbaa !37
  %34 = getelementptr inbounds ptr, ptr %33, i64 4
  %35 = load ptr, ptr %34, align 8
  %36 = call noundef zeroext i1 %35(ptr noundef nonnull align 8 dereferenceable(8) %31, ptr noundef nonnull align 8 dereferenceable(17) %32)
  br i1 %36, label %40, label %37

37:                                               ; preds = %25
  %38 = load i32, ptr %9, align 4, !tbaa !14
  %39 = add nsw i32 %38, 1
  store i32 %39, ptr %9, align 4, !tbaa !14
  store i32 3, ptr %10, align 4
  br label %66, !llvm.loop !231

40:                                               ; preds = %25
  call void @llvm.lifetime.start.p0(i64 4, ptr %12) #13
  %41 = load ptr, ptr %6, align 8, !tbaa !229
  %42 = call noundef i32 @_ZNK6icu_7713StringSegment9getOffsetEv(ptr noundef nonnull align 8 dereferenceable(17) %41)
  store i32 %42, ptr %12, align 4, !tbaa !14
  %43 = load ptr, ptr %11, align 8, !tbaa !23
  %44 = load ptr, ptr %6, align 8, !tbaa !229
  %45 = load ptr, ptr %7, align 8, !tbaa !226
  %46 = load ptr, ptr %8, align 8, !tbaa !22
  %47 = load ptr, ptr %43, align 8, !tbaa !37
  %48 = getelementptr inbounds ptr, ptr %47, i64 3
  %49 = load ptr, ptr %48, align 8
  %50 = call noundef zeroext i1 %49(ptr noundef nonnull align 8 dereferenceable(8) %43, ptr noundef nonnull align 8 dereferenceable(17) %44, ptr noundef nonnull align 8 dereferenceable(216) %45, ptr noundef nonnull align 4 dereferenceable(4) %46)
  %51 = load ptr, ptr %8, align 8, !tbaa !22
  %52 = load i32, ptr %51, align 4, !tbaa !15
  %53 = call noundef signext i8 @_ZL9U_FAILURE10UErrorCode(i32 noundef %52)
  %54 = icmp ne i8 %53, 0
  br i1 %54, label %55, label %56

55:                                               ; preds = %40
  store i32 1, ptr %10, align 4
  br label %65

56:                                               ; preds = %40
  %57 = load ptr, ptr %6, align 8, !tbaa !229
  %58 = call noundef i32 @_ZNK6icu_7713StringSegment9getOffsetEv(ptr noundef nonnull align 8 dereferenceable(17) %57)
  %59 = load i32, ptr %12, align 4, !tbaa !14
  %60 = icmp ne i32 %58, %59
  br i1 %60, label %61, label %62

61:                                               ; preds = %56
  store i32 0, ptr %9, align 4, !tbaa !14
  store i32 3, ptr %10, align 4
  br label %65, !llvm.loop !231

62:                                               ; preds = %56
  %63 = load i32, ptr %9, align 4, !tbaa !14
  %64 = add nsw i32 %63, 1
  store i32 %64, ptr %9, align 4, !tbaa !14
  store i32 3, ptr %10, align 4
  br label %65, !llvm.loop !231

65:                                               ; preds = %62, %61, %55
  call void @llvm.lifetime.end.p0(i64 4, ptr %12) #13
  br label %66

66:                                               ; preds = %65, %37
  call void @llvm.lifetime.end.p0(i64 8, ptr %11) #13
  %67 = load i32, ptr %10, align 4
  switch i32 %67, label %68 [
    i32 3, label %14
  ]

68:                                               ; preds = %66, %24, %19
  call void @llvm.lifetime.end.p0(i64 4, ptr %9) #13
  %69 = load i32, ptr %10, align 4
  switch i32 %69, label %71 [
    i32 2, label %70
    i32 1, label %70
  ]

70:                                               ; preds = %68, %68
  ret void

71:                                               ; preds = %68
  unreachable
}