; Function Attrs: mustprogress uwtable
define void @_ZNK6icu_778numparse4impl16NumberParserImpl11parseGreedyERNS_13StringSegmentERNS1_12ParsedNumberER10UErrorCode(ptr noundef nonnull readonly align 8 captures(none) dereferenceable(5216) %0, ptr noundef nonnull align 8 dereferenceable(17) %1, ptr noundef nonnull align 8 dereferenceable(216) %2, ptr noundef nonnull align 4 dereferenceable(4) %3) local_unnamed_addr #1 align 2 {
  %5 = getelementptr inbounds nuw i8, ptr %0, i64 12
  %6 = load i32, ptr %5, align 4, !tbaa !177
  %7 = icmp sgt i32 %6, 0
  br i1 %7, label %.lr.ph, label %.thread

.lr.ph:                                           ; preds = %4
  %8 = getelementptr inbounds nuw i8, ptr %0, i64 16
  br label %9

9:                                                ; preds = %.lr.ph, %34
  %.021 = phi i32 [ 0, %.lr.ph ], [ %.1, %34 ]
  %10 = tail call noundef i32 @_ZNK6icu_7713StringSegment6lengthEv(ptr noundef nonnull align 8 dereferenceable(17) %1)
  %11 = icmp eq i32 %10, 0
  br i1 %11, label %.thread, label %12

12:                                               ; preds = %9
  %13 = sext i32 %.021 to i64
  %14 = load ptr, ptr %8, align 8, !tbaa !178
  %15 = getelementptr inbounds ptr, ptr %14, i64 %13
  %16 = load ptr, ptr %15, align 8, !tbaa !185
  %17 = load ptr, ptr %16, align 8, !tbaa !22
  %18 = getelementptr inbounds nuw i8, ptr %17, i64 32
  %19 = load ptr, ptr %18, align 8
  %20 = tail call noundef zeroext i1 %19(ptr noundef nonnull align 8 dereferenceable(8) %16, ptr noundef nonnull align 8 dereferenceable(17) %1)
  br i1 %20, label %23, label %21

21:                                               ; preds = %12
  %22 = add nsw i32 %.021, 1
  br label %34, !llvm.loop !187

23:                                               ; preds = %12
  %24 = tail call noundef i32 @_ZNK6icu_7713StringSegment9getOffsetEv(ptr noundef nonnull align 8 dereferenceable(17) %1)
  %25 = load ptr, ptr %16, align 8, !tbaa !22
  %26 = getelementptr inbounds nuw i8, ptr %25, i64 24
  %27 = load ptr, ptr %26, align 8
  %28 = tail call noundef zeroext i1 %27(ptr noundef nonnull align 8 dereferenceable(8) %16, ptr noundef nonnull align 8 dereferenceable(17) %1, ptr noundef nonnull align 8 dereferenceable(216) %2, ptr noundef nonnull align 4 dereferenceable(4) %3)
  %29 = load i32, ptr %3, align 4, !tbaa !13
  %30 = icmp slt i32 %29, 1
  br i1 %30, label %31, label %.thread

31:                                               ; preds = %23
  %32 = tail call noundef i32 @_ZNK6icu_7713StringSegment9getOffsetEv(ptr noundef nonnull align 8 dereferenceable(17) %1)
  %.not18 = icmp eq i32 %32, %24
  %33 = add nsw i32 %.021, 1
  %spec.select = select i1 %.not18, i32 %33, i32 0
  br label %34, !llvm.loop !187

34:                                               ; preds = %31, %21
  %.1 = phi i32 [ %22, %21 ], [ %spec.select, %31 ]
  %35 = load i32, ptr %5, align 4, !tbaa !177
  %36 = icmp slt i32 %.1, %35
  br i1 %36, label %9, label %.thread

.thread:                                          ; preds = %34, %9, %23, %4
  ret void
}